; Function Attrs: mustprogress uwtable
define noundef i32 @_ZN3zmq14plain_client_t22next_handshake_commandEPNS_5msg_tE(ptr noundef nonnull align 8 dereferenceable(1504) %this, ptr noundef %msg_) unnamed_addr #0 align 2 {
entry:
  %_state = getelementptr inbounds i8, ptr %this, i64 1496
  %0 = load i32, ptr %_state, align 8
  switch i32 %0, label %sw.default [
    i32 0, label %sw.bb
    i32 2, label %sw.bb3
  ]

sw.bb:                                            ; preds = %entry
  tail call void @_ZNK3zmq14plain_client_t13produce_helloEPNS_5msg_tE(ptr noundef nonnull align 8 dereferenceable(1504) %this, ptr noundef %msg_)
  store i32 1, ptr %_state, align 8
  br label %sw.epilog

sw.bb3:                                           ; preds = %entry
  tail call void @_ZNK3zmq11mechanism_t34make_command_with_basic_propertiesEPNS_5msg_tEPKcm(ptr noundef nonnull align 8 dereferenceable(1488) %this, ptr noundef %msg_, ptr noundef nonnull @_ZN3zmqL15initiate_prefixE, i64 noundef 9)
  store i32 3, ptr %_state, align 8
  br label %sw.epilog

sw.default:                                       ; preds = %entry
  %call = tail call ptr @__errno_location() #12
  store i32 11, ptr %call, align 4
  br label %sw.epilog

sw.epilog:                                        ; preds = %sw.default, %sw.bb3, %sw.bb
  %rc.0 = phi i32 [ -1, %sw.default ], [ 0, %sw.bb3 ], [ 0, %sw.bb ]
  ret i32 %rc.0
}